; Function Attrs: nounwind uwtable
define internal fastcc void @agxbputc(ptr noundef captures(none) %0, i8 noundef signext %1) unnamed_addr #0 {
  %3 = getelementptr i8, ptr %0, i64 31
  %.val.i = load i8, ptr %3, align 1
  %.not.i = icmp eq i8 %.val.i, -1
  br i1 %.not.i, label %5, label %agxblen.exit

agxblen.exit:                                     ; preds = %2
  %4 = zext i8 %.val.i to i64
  br label %agxbsizeof.exit

5:                                                ; preds = %2
  %6 = getelementptr inbounds nuw i8, ptr %0, i64 8
  %7 = load i64, ptr %6, align 8
  %8 = getelementptr inbounds nuw i8, ptr %0, i64 16
  %9 = load i64, ptr %8, align 8
  br label %agxbsizeof.exit

agxbsizeof.exit:                                  ; preds = %agxblen.exit, %5
  %.0.i20 = phi i64 [ %7, %5 ], [ %4, %agxblen.exit ]
  %.0.i14 = phi i64 [ %9, %5 ], [ 31, %agxblen.exit ]
  %.not = icmp ult i64 %.0.i20, %.0.i14
  br i1 %.not, label %11, label %10

10:                                               ; preds = %agxbsizeof.exit
  tail call fastcc void @agxbmore(ptr noundef nonnull %0, i64 noundef 1)
  %.val.i15.pre = load i8, ptr %3, align 1
  br label %11

11:                                               ; preds = %10, %agxbsizeof.exit
  %.val.i15 = phi i8 [ %.val.i15.pre, %10 ], [ %.val.i, %agxbsizeof.exit ]
  %.not.i16 = icmp eq i8 %.val.i15, -1
  br i1 %.not.i16, label %17, label %12

12:                                               ; preds = %11
  %13 = zext i8 %.val.i15 to i64
  %14 = getelementptr inbounds nuw [31 x i8], ptr %0, i64 0, i64 %13
  store i8 %1, ptr %14, align 1
  %15 = load i8, ptr %3, align 1
  %16 = add i8 %15, 1
  store i8 %16, ptr %3, align 1
  br label %24

17:                                               ; preds = %11
  %18 = getelementptr inbounds nuw i8, ptr %0, i64 8
  %19 = load i64, ptr %18, align 8
  %20 = load ptr, ptr %0, align 8
  %21 = getelementptr inbounds i8, ptr %20, i64 %19
  store i8 %1, ptr %21, align 1
  %22 = load i64, ptr %18, align 8
  %23 = add i64 %22, 1
  store i64 %23, ptr %18, align 8
  br label %24

24:                                               ; preds = %17, %12
  ret void
}